target datalayout = "e-m:e-p270:32:32-p271:32:32-p272:64:64-i64:64-i128:128-f80:128-n8:16:32:64-S128"
target triple = "x86_64-pc-linux-gnu"

%"class.llvm::StringRef" = type { ptr, i64 }

@.str.7 = private unnamed_addr constant [3 x i8] c"sp\00", align 1
@.str.8 = private unnamed_addr constant [2 x i8] c"x\00", align 1
@.str.9 = private unnamed_addr constant [2 x i8] c"w\00", align 1

; Function Attrs: mustprogress nounwind uwtable
define linkonce_odr hidden noundef i32 @_ZN4llvm9StringRef13compareMemoryEPKcS2_m(ptr noundef %0, ptr noundef %1, i64 noundef %2) #0 comdat align 2 {
  %4 = alloca i32, align 4
  %5 = alloca ptr, align 8
  %6 = alloca ptr, align 8
  %7 = alloca i64, align 8
  store ptr %0, ptr %5, align 8
  store ptr %1, ptr %6, align 8
  store i64 %2, ptr %7, align 8
  %8 = load i64, ptr %7, align 8
  %9 = icmp eq i64 %8, 0
  br i1 %9, label %10, label %11

10:                                               ; preds = %3
  store i32 0, ptr %4, align 4
  br label %16

11:                                               ; preds = %3
  %12 = load ptr, ptr %5, align 8
  %13 = load ptr, ptr %6, align 8
  %14 = load i64, ptr %7, align 8
  %15 = call i32 @memcmp(ptr noundef %12, ptr noundef %13, i64 noundef %14) #14
  store i32 %15, ptr %4, align 4
  br label %16

16:                                               ; preds = %11, %10
  %17 = load i32, ptr %4, align 4
  ret i32 %17
}

; Function Attrs: mustprogress nounwind uwtable
define linkonce_odr hidden noundef ptr @_ZNK4llvm9StringRef4dataEv(ptr noundef nonnull align 8 dereferenceable(16) %0) #0 comdat align 2 {
  %2 = alloca ptr, align 8
  store ptr %0, ptr %2, align 8
  %3 = load ptr, ptr %2, align 8
  %4 = getelementptr inbounds nuw %"class.llvm::StringRef", ptr %3, i32 0, i32 0
  %5 = load ptr, ptr %4, align 8
  ret ptr %5
}

; Function Attrs: mustprogress nounwind uwtable
define linkonce_odr hidden noundef zeroext i1 @_ZNK4llvm9StringRef5emptyEv(ptr noundef nonnull align 8 dereferenceable(16) %0) #0 comdat align 2 {
  %2 = alloca ptr, align 8
  store ptr %0, ptr %2, align 8
  %3 = load ptr, ptr %2, align 8
  %4 = getelementptr inbounds nuw %"class.llvm::StringRef", ptr %3, i32 0, i32 1
  %5 = load i64, ptr %4, align 8
  %6 = icmp eq i64 %5, 0
  ret i1 %6
}

; Function Attrs: mustprogress nounwind uwtable
define linkonce_odr hidden noundef i64 @_ZNK4llvm9StringRef4sizeEv(ptr noundef nonnull align 8 dereferenceable(16) %0) #0 comdat align 2 {
  %2 = alloca ptr, align 8
  store ptr %0, ptr %2, align 8
  %3 = load ptr, ptr %2, align 8
  %4 = getelementptr inbounds nuw %"class.llvm::StringRef", ptr %3, i32 0, i32 1
  %5 = load i64, ptr %4, align 8
  ret i64 %5
}

; Function Attrs: mustprogress nounwind uwtable
define linkonce_odr hidden noundef i64 @_ZNSt11char_traitsIcE6lengthEPKc(ptr noundef %0) #0 comdat align 2 {
  %2 = alloca ptr, align 8
  store ptr %0, ptr %2, align 8
  %3 = load ptr, ptr %2, align 8
  %4 = call i64 @strlen(ptr noundef %3) #11
  ret i64 %4
}

; Function Attrs: mustprogress nounwind uwtable
define linkonce_odr hidden noundef zeroext i1 @_ZNK4llvm9StringRef11starts_withES0_(ptr noundef nonnull align 8 dereferenceable(16) %0, ptr %1, i64 %2) #0 comdat align 2 {
  %4 = alloca %"class.llvm::StringRef", align 8
  %5 = alloca ptr, align 8
  %6 = getelementptr inbounds nuw { ptr, i64 }, ptr %4, i32 0, i32 0
  store ptr %1, ptr %6, align 8
  %7 = getelementptr inbounds nuw { ptr, i64 }, ptr %4, i32 0, i32 1
  store i64 %2, ptr %7, align 8
  store ptr %0, ptr %5, align 8
  %8 = load ptr, ptr %5, align 8
  %9 = getelementptr inbounds nuw %"class.llvm::StringRef", ptr %8, i32 0, i32 1
  %10 = load i64, ptr %9, align 8
  %11 = getelementptr inbounds nuw %"class.llvm::StringRef", ptr %4, i32 0, i32 1
  %12 = load i64, ptr %11, align 8
  %13 = icmp uge i64 %10, %12
  br i1 %13, label %14, label %23

14:                                               ; preds = %3
  %15 = getelementptr inbounds nuw %"class.llvm::StringRef", ptr %8, i32 0, i32 0
  %16 = load ptr, ptr %15, align 8
  %17 = getelementptr inbounds nuw %"class.llvm::StringRef", ptr %4, i32 0, i32 0
  %18 = load ptr, ptr %17, align 8
  %19 = getelementptr inbounds nuw %"class.llvm::StringRef", ptr %4, i32 0, i32 1
  %20 = load i64, ptr %19, align 8
  %21 = call noundef i32 @_ZN4llvm9StringRef13compareMemoryEPKcS2_m(ptr noundef %16, ptr noundef %18, i64 noundef %20)
  %22 = icmp eq i32 %21, 0
  br label %23

23:                                               ; preds = %14, %3
  %24 = phi i1 [ false, %3 ], [ %22, %14 ]
  ret i1 %24
}

; Function Attrs: mustprogress nounwind uwtable
define linkonce_odr hidden noundef zeroext i1 @_ZN4llvmeqENS_9StringRefES0_(ptr %0, i64 %1, ptr %2, i64 %3) #0 comdat {
  %5 = alloca i1, align 1
  %6 = alloca %"class.llvm::StringRef", align 8
  %7 = alloca %"class.llvm::StringRef", align 8
  %8 = getelementptr inbounds nuw { ptr, i64 }, ptr %6, i32 0, i32 0
  store ptr %0, ptr %8, align 8
  %9 = getelementptr inbounds nuw { ptr, i64 }, ptr %6, i32 0, i32 1
  store i64 %1, ptr %9, align 8
  %10 = getelementptr inbounds nuw { ptr, i64 }, ptr %7, i32 0, i32 0
  store ptr %2, ptr %10, align 8
  %11 = getelementptr inbounds nuw { ptr, i64 }, ptr %7, i32 0, i32 1
  store i64 %3, ptr %11, align 8
  %12 = call noundef i64 @_ZNK4llvm9StringRef4sizeEv(ptr noundef nonnull align 8 dereferenceable(16) %6)
  %13 = call noundef i64 @_ZNK4llvm9StringRef4sizeEv(ptr noundef nonnull align 8 dereferenceable(16) %7)
  %14 = icmp ne i64 %12, %13
  br i1 %14, label %15, label %16

15:                                               ; preds = %4
  store i1 false, ptr %5, align 1
  br label %25

16:                                               ; preds = %4
  %17 = call noundef zeroext i1 @_ZNK4llvm9StringRef5emptyEv(ptr noundef nonnull align 8 dereferenceable(16) %6)
  br i1 %17, label %18, label %19

18:                                               ; preds = %16
  store i1 true, ptr %5, align 1
  br label %25

19:                                               ; preds = %16
  %20 = call noundef ptr @_ZNK4llvm9StringRef4dataEv(ptr noundef nonnull align 8 dereferenceable(16) %6)
  %21 = call noundef ptr @_ZNK4llvm9StringRef4dataEv(ptr noundef nonnull align 8 dereferenceable(16) %7)
  %22 = call noundef i64 @_ZNK4llvm9StringRef4sizeEv(ptr noundef nonnull align 8 dereferenceable(16) %6)
  %23 = call i32 @memcmp(ptr noundef %20, ptr noundef %21, i64 noundef %22) #14
  %24 = icmp eq i32 %23, 0
  store i1 %24, ptr %5, align 1
  br label %25

25:                                               ; preds = %19, %18, %15
  %26 = load i1, ptr %5, align 1
  ret i1 %26
}

; Function Attrs: mustprogress nounwind uwtable
define linkonce_odr hidden void @_ZN4llvm9StringRefC2EPKc(ptr noundef nonnull align 8 dereferenceable(16) %0, ptr noundef %1) unnamed_addr #0 comdat align 2 {
  %3 = alloca ptr, align 8
  %4 = alloca ptr, align 8
  store ptr %0, ptr %3, align 8
  store ptr %1, ptr %4, align 8
  %5 = load ptr, ptr %3, align 8
  %6 = getelementptr inbounds nuw %"class.llvm::StringRef", ptr %5, i32 0, i32 0
  %7 = load ptr, ptr %4, align 8
  store ptr %7, ptr %6, align 8
  %8 = getelementptr inbounds nuw %"class.llvm::StringRef", ptr %5, i32 0, i32 1
  %9 = load ptr, ptr %4, align 8
  %10 = icmp ne ptr %9, null
  br i1 %10, label %11, label %14

11:                                               ; preds = %2
  %12 = load ptr, ptr %4, align 8
  %13 = call noundef i64 @_ZNSt11char_traitsIcE6lengthEPKc(ptr noundef %12)
  br label %15

14:                                               ; preds = %2
  br label %15

15:                                               ; preds = %14, %11
  %16 = phi i64 [ %13, %11 ], [ 0, %14 ]
  store i64 %16, ptr %8, align 8
  ret void
}

; Function Attrs: mustprogress nounwind uwtable
define hidden noundef zeroext i1 @_ZNK5clang7targets17AArch64TargetInfo30validateGlobalRegisterVariableEN4llvm9StringRefEjRb(ptr noundef nonnull align 8 dereferenceable(600) %0, ptr %1, i64 %2, i32 noundef %3, ptr noundef nonnull align 1 dereferenceable(1) %4) unnamed_addr #0 align 2 {
  %6 = alloca i1, align 1
  %7 = alloca %"class.llvm::StringRef", align 8
  %8 = alloca ptr, align 8
  %9 = alloca i32, align 4
  %10 = alloca ptr, align 8
  %11 = alloca %"class.llvm::StringRef", align 8
  %12 = alloca %"class.llvm::StringRef", align 8
  %13 = alloca %"class.llvm::StringRef", align 8
  %14 = alloca %"class.llvm::StringRef", align 8
  %15 = getelementptr inbounds nuw { ptr, i64 }, ptr %7, i32 0, i32 0
  store ptr %1, ptr %15, align 8
  %16 = getelementptr inbounds nuw { ptr, i64 }, ptr %7, i32 0, i32 1
  store i64 %2, ptr %16, align 8
  store ptr %0, ptr %8, align 8
  store i32 %3, ptr %9, align 4
  store ptr %4, ptr %10, align 8
  call void @llvm.memcpy.p0.p0.i64(ptr align 8 %11, ptr align 8 %7, i64 16, i1 false)
  call void @_ZN4llvm9StringRefC2EPKc(ptr noundef nonnull align 8 dereferenceable(16) %12, ptr noundef @.str.7)
  %17 = getelementptr inbounds nuw { ptr, i64 }, ptr %11, i32 0, i32 0
  %18 = load ptr, ptr %17, align 8
  %19 = getelementptr inbounds nuw { ptr, i64 }, ptr %11, i32 0, i32 1
  %20 = load i64, ptr %19, align 8
  %21 = getelementptr inbounds nuw { ptr, i64 }, ptr %12, i32 0, i32 0
  %22 = load ptr, ptr %21, align 8
  %23 = getelementptr inbounds nuw { ptr, i64 }, ptr %12, i32 0, i32 1
  %24 = load i64, ptr %23, align 8
  %25 = call noundef zeroext i1 @_ZN4llvmeqENS_9StringRefES0_(ptr %18, i64 %20, ptr %22, i64 %24)
  br i1 %25, label %32, label %26

26:                                               ; preds = %5
  call void @_ZN4llvm9StringRefC2EPKc(ptr noundef nonnull align 8 dereferenceable(16) %13, ptr noundef @.str.8)
  %27 = getelementptr inbounds nuw { ptr, i64 }, ptr %13, i32 0, i32 0
  %28 = load ptr, ptr %27, align 8
  %29 = getelementptr inbounds nuw { ptr, i64 }, ptr %13, i32 0, i32 1
  %30 = load i64, ptr %29, align 8
  %31 = call noundef zeroext i1 @_ZNK4llvm9StringRef11starts_withES0_(ptr noundef nonnull align 8 dereferenceable(16) %7, ptr %28, i64 %30)
  br i1 %31, label %32, label %37

32:                                               ; preds = %26, %5
  %33 = load i32, ptr %9, align 4
  %34 = icmp ne i32 %33, 64
  %35 = load ptr, ptr %10, align 8
  %36 = zext i1 %34 to i8
  store i8 %36, ptr %35, align 1
  store i1 true, ptr %6, align 1
  br label %50

37:                                               ; preds = %26
  call void @_ZN4llvm9StringRefC2EPKc(ptr noundef nonnull align 8 dereferenceable(16) %14, ptr noundef @.str.9)
  %38 = getelementptr inbounds nuw { ptr, i64 }, ptr %14, i32 0, i32 0
  %39 = load ptr, ptr %38, align 8
  %40 = getelementptr inbounds nuw { ptr, i64 }, ptr %14, i32 0, i32 1
  %41 = load i64, ptr %40, align 8
  %42 = call noundef zeroext i1 @_ZNK4llvm9StringRef11starts_withES0_(ptr noundef nonnull align 8 dereferenceable(16) %7, ptr %39, i64 %41)
  br i1 %42, label %43, label %48

43:                                               ; preds = %37
  %44 = load i32, ptr %9, align 4
  %45 = icmp ne i32 %44, 32
  %46 = load ptr, ptr %10, align 8
  %47 = zext i1 %45 to i8
  store i8 %47, ptr %46, align 1
  store i1 true, ptr %6, align 1
  br label %50

48:                                               ; preds = %37
  br label %49

49:                                               ; preds = %48
  store i1 false, ptr %6, align 1
  br label %50

50:                                               ; preds = %49, %43, %32
  %51 = load i1, ptr %6, align 1
  ret i1 %51
}