; Function Attrs: mustprogress nofree nounwind willreturn memory(argmem: readwrite) uwtable
define hidden noundef zeroext i1 @_ZNK5clang7targets17AArch64TargetInfo30validateGlobalRegisterVariableEN4llvm9StringRefEjRb(ptr nonnull readnone align 8 captures(none) %0, ptr readonly captures(none) %1, i64 %2, i32 noundef %3, ptr noundef nonnull writeonly align 1 captures(none) dereferenceable(1) %4) unnamed_addr #5 align 2 {
  switch i64 %2, label %_ZNK4llvm9StringRef11starts_withES0_.exit [
    i64 2, label %_ZN4llvmeqENS_9StringRefES0_.exit
    i64 0, label %_ZNK4llvm9StringRef11starts_withES0_.exit8.thread20
  ]

_ZN4llvmeqENS_9StringRefES0_.exit:                ; preds = %5
  %bcmp.i = tail call i32 @bcmp(ptr noundef nonnull dereferenceable(2) %1, ptr noundef nonnull dereferenceable(2) @.str.7, i64 2)
  %6 = icmp eq i32 %bcmp.i, 0
  br i1 %6, label %_ZNK4llvm9StringRef11starts_withES0_.exit8.thread20.sink.split, label %_ZNK4llvm9StringRef11starts_withES0_.exit

_ZNK4llvm9StringRef11starts_withES0_.exit:        ; preds = %_ZN4llvmeqENS_9StringRefES0_.exit, %5
  %lhsc = load i8, ptr %1, align 1
  switch i8 %lhsc, label %_ZNK4llvm9StringRef11starts_withES0_.exit8.thread20 [
    i8 120, label %_ZNK4llvm9StringRef11starts_withES0_.exit8.thread20.sink.split
    i8 119, label %_ZNK4llvm9StringRef11starts_withES0_.exit8.thread
  ]

_ZNK4llvm9StringRef11starts_withES0_.exit8.thread: ; preds = %_ZNK4llvm9StringRef11starts_withES0_.exit
  br label %_ZNK4llvm9StringRef11starts_withES0_.exit8.thread20.sink.split

_ZNK4llvm9StringRef11starts_withES0_.exit8.thread20.sink.split: ; preds = %_ZN4llvmeqENS_9StringRefES0_.exit, %_ZNK4llvm9StringRef11starts_withES0_.exit, %_ZNK4llvm9StringRef11starts_withES0_.exit8.thread
  %.sink = phi i32 [ 32, %_ZNK4llvm9StringRef11starts_withES0_.exit8.thread ], [ 64, %_ZNK4llvm9StringRef11starts_withES0_.exit ], [ 64, %_ZN4llvmeqENS_9StringRefES0_.exit ]
  %7 = icmp ne i32 %3, %.sink
  %8 = zext i1 %7 to i8
  store i8 %8, ptr %4, align 1
  br label %_ZNK4llvm9StringRef11starts_withES0_.exit8.thread20

_ZNK4llvm9StringRef11starts_withES0_.exit8.thread20: ; preds = %_ZNK4llvm9StringRef11starts_withES0_.exit8.thread20.sink.split, %_ZNK4llvm9StringRef11starts_withES0_.exit, %5
  %.0 = phi i1 [ false, %5 ], [ false, %_ZNK4llvm9StringRef11starts_withES0_.exit ], [ true, %_ZNK4llvm9StringRef11starts_withES0_.exit8.thread20.sink.split ]
  ret i1 %.0
}